; Function Attrs: nounwind uwtable
define void @Saig_ManBmcSupergate_rec(ptr noundef %0, ptr noundef captures(none) %1) local_unnamed_addr #0 {
  %3 = ptrtoint ptr %0 to i64
  %4 = and i64 %3, 1
  %.not13 = icmp eq i64 %4, 0
  br i1 %.not13, label %.lr.ph.preheader, label %._crit_edge

.lr.ph.preheader:                                 ; preds = %2
  %5 = getelementptr i8, ptr %0, i64 24
  %.val16 = load i64, ptr %5, align 8
  %6 = and i64 %.val16, 7
  %.not1117 = icmp eq i64 %6, 2
  br i1 %.not1117, label %._crit_edge, label %tailrecurse

.lr.ph:                                           ; preds = %tailrecurse
  %7 = getelementptr i8, ptr %.val10, i64 24
  %.val = load i64, ptr %7, align 8
  %8 = and i64 %.val, 7
  %.not11 = icmp eq i64 %8, 2
  br i1 %.not11, label %._crit_edge, label %tailrecurse

._crit_edge:                                      ; preds = %.lr.ph, %tailrecurse, %.lr.ph.preheader, %2
  %.lcssa = phi i64 [ %3, %2 ], [ %3, %.lr.ph.preheader ], [ %52, %tailrecurse ], [ %52, %.lr.ph ]
  %9 = and i64 %.lcssa, -2
  %10 = inttoptr i64 %9 to ptr
  %11 = getelementptr inbounds nuw i8, ptr %1, i64 4
  %12 = load i32, ptr %11, align 4, !tbaa !32
  %13 = icmp sgt i32 %12, 0
  br i1 %13, label %.lr.ph.i, label %._crit_edge.i

.lr.ph.i:                                         ; preds = %._crit_edge
  %14 = getelementptr inbounds nuw i8, ptr %1, i64 8
  %15 = load ptr, ptr %14, align 8, !tbaa !23
  %wide.trip.count.i = zext nneg i32 %12 to i64
  br label %17

16:                                               ; preds = %17
  %indvars.iv.next.i = add nuw nsw i64 %indvars.iv.i, 1
  %exitcond.not.i = icmp eq i64 %indvars.iv.next.i, %wide.trip.count.i
  br i1 %exitcond.not.i, label %._crit_edge.i, label %17, !llvm.loop !66

17:                                               ; preds = %16, %.lr.ph.i
  %indvars.iv.i = phi i64 [ 0, %.lr.ph.i ], [ %indvars.iv.next.i, %16 ]
  %18 = getelementptr inbounds nuw ptr, ptr %15, i64 %indvars.iv.i
  %19 = load ptr, ptr %18, align 8, !tbaa !25
  %20 = icmp eq ptr %19, %10
  br i1 %20, label %Vec_PtrPushUnique.exit, label %16

._crit_edge.i:                                    ; preds = %16, %._crit_edge
  %21 = load i32, ptr %1, align 8, !tbaa !42
  %22 = icmp eq i32 %12, %21
  br i1 %22, label %23, label %.Vec_PtrGrow.exit11_crit_edge.i.i

.Vec_PtrGrow.exit11_crit_edge.i.i:                ; preds = %._crit_edge.i
  %.phi.trans.insert.i.i = getelementptr inbounds nuw i8, ptr %1, i64 8
  %.pre.i.i = load ptr, ptr %.phi.trans.insert.i.i, align 8, !tbaa !23
  br label %Vec_PtrPush.exit.i

23:                                               ; preds = %._crit_edge.i
  %24 = icmp slt i32 %12, 16
  br i1 %24, label %25, label %33

25:                                               ; preds = %23
  %26 = getelementptr inbounds nuw i8, ptr %1, i64 8
  %27 = load ptr, ptr %26, align 8, !tbaa !23
  %.not9.i.i.i = icmp eq ptr %27, null
  br i1 %.not9.i.i.i, label %30, label %28

28:                                               ; preds = %25
  %29 = tail call dereferenceable_or_null(128) ptr @realloc(ptr noundef nonnull %27, i64 noundef 128) #28
  br label %Vec_PtrGrow.exit.i.i

30:                                               ; preds = %25
  %31 = tail call noalias dereferenceable_or_null(128) ptr @malloc(i64 noundef 128) #27
  br label %Vec_PtrGrow.exit.i.i

Vec_PtrGrow.exit.i.i:                             ; preds = %30, %28
  %32 = phi ptr [ %29, %28 ], [ %31, %30 ]
  store ptr %32, ptr %26, align 8, !tbaa !23
  store i32 16, ptr %1, align 8, !tbaa !42
  br label %Vec_PtrPush.exit.i

33:                                               ; preds = %23
  %34 = shl nuw nsw i32 %12, 1
  %35 = getelementptr inbounds nuw i8, ptr %1, i64 8
  %36 = load ptr, ptr %35, align 8, !tbaa !23
  %.not9.i10.i.i = icmp eq ptr %36, null
  %37 = zext nneg i32 %34 to i64
  %38 = shl nuw nsw i64 %37, 3
  br i1 %.not9.i10.i.i, label %41, label %39

39:                                               ; preds = %33
  %40 = tail call ptr @realloc(ptr noundef nonnull %36, i64 noundef %38) #28
  br label %43

41:                                               ; preds = %33
  %42 = tail call noalias ptr @malloc(i64 noundef %38) #27
  br label %43

43:                                               ; preds = %41, %39
  %44 = phi ptr [ %40, %39 ], [ %42, %41 ]
  store ptr %44, ptr %35, align 8, !tbaa !23
  store i32 %34, ptr %1, align 8, !tbaa !42
  br label %Vec_PtrPush.exit.i

Vec_PtrPush.exit.i:                               ; preds = %43, %Vec_PtrGrow.exit.i.i, %.Vec_PtrGrow.exit11_crit_edge.i.i
  %45 = phi ptr [ %.pre.i.i, %.Vec_PtrGrow.exit11_crit_edge.i.i ], [ %44, %43 ], [ %32, %Vec_PtrGrow.exit.i.i ]
  %46 = load i32, ptr %11, align 4, !tbaa !32
  %47 = add nsw i32 %46, 1
  store i32 %47, ptr %11, align 4, !tbaa !32
  %48 = sext i32 %46 to i64
  %49 = getelementptr inbounds ptr, ptr %45, i64 %48
  store ptr %10, ptr %49, align 8, !tbaa !25
  br label %Vec_PtrPushUnique.exit

tailrecurse:                                      ; preds = %.lr.ph.preheader, %.lr.ph
  %.tr1418 = phi ptr [ %.val10, %.lr.ph ], [ %0, %.lr.ph.preheader ]
  %50 = getelementptr i8, ptr %.tr1418, i64 8
  %.val9 = load ptr, ptr %50, align 8, !tbaa !26
  tail call void @Saig_ManBmcSupergate_rec(ptr noundef %.val9, ptr noundef %1)
  %51 = getelementptr i8, ptr %.tr1418, i64 16
  %.val10 = load ptr, ptr %51, align 8, !tbaa !39
  %52 = ptrtoint ptr %.val10 to i64
  %53 = and i64 %52, 1
  %.not = icmp eq i64 %53, 0
  br i1 %.not, label %.lr.ph, label %._crit_edge

Vec_PtrPushUnique.exit:                           ; preds = %17, %Vec_PtrPush.exit.i
  ret void
}